target datalayout = "e-m:e-p270:32:32-p271:32:32-p272:64:64-i64:64-i128:128-f80:128-n8:16:32:64-S128"
target triple = "x86_64-pc-linux-gnu"

%struct.ConvolveParams = type { i32, ptr, i32, i32, i32, i32, i32, i32, i32, i32 }

; Function Attrs: nounwind uwtable
define internal i32 @clamp(i32 noundef %0, i32 noundef %1, i32 noundef %2) #0 {
  %4 = alloca i32, align 4
  %5 = alloca i32, align 4
  %6 = alloca i32, align 4
  store i32 %0, ptr %4, align 4
  store i32 %1, ptr %5, align 4
  store i32 %2, ptr %6, align 4
  %7 = load i32, ptr %4, align 4
  %8 = load i32, ptr %5, align 4
  %9 = icmp slt i32 %7, %8
  br i1 %9, label %10, label %12

10:                                               ; preds = %3
  %11 = load i32, ptr %5, align 4
  br label %22

12:                                               ; preds = %3
  %13 = load i32, ptr %4, align 4
  %14 = load i32, ptr %6, align 4
  %15 = icmp sgt i32 %13, %14
  br i1 %15, label %16, label %18

16:                                               ; preds = %12
  %17 = load i32, ptr %6, align 4
  br label %20

18:                                               ; preds = %12
  %19 = load i32, ptr %4, align 4
  br label %20

20:                                               ; preds = %18, %16
  %21 = phi i32 [ %17, %16 ], [ %19, %18 ]
  br label %22

22:                                               ; preds = %20, %10
  %23 = phi i32 [ %11, %10 ], [ %21, %20 ]
  ret i32 %23
}

; Function Attrs: nounwind uwtable
define internal void @diffwtd_mask_d16(ptr noundef %0, i32 noundef %1, i32 noundef %2, ptr noundef %3, i32 noundef %4, ptr noundef %5, i32 noundef %6, i32 noundef %7, i32 noundef %8, ptr noundef %9, i32 noundef %10) #0 {
  %12 = alloca ptr, align 8
  %13 = alloca i32, align 4
  %14 = alloca i32, align 4
  %15 = alloca ptr, align 8
  %16 = alloca i32, align 4
  %17 = alloca ptr, align 8
  %18 = alloca i32, align 4
  %19 = alloca i32, align 4
  %20 = alloca i32, align 4
  %21 = alloca ptr, align 8
  %22 = alloca i32, align 4
  %23 = alloca i32, align 4
  %24 = alloca i32, align 4
  %25 = alloca i32, align 4
  %26 = alloca i32, align 4
  %27 = alloca i32, align 4
  store ptr %0, ptr %12, align 8
  store i32 %1, ptr %13, align 4
  store i32 %2, ptr %14, align 4
  store ptr %3, ptr %15, align 8
  store i32 %4, ptr %16, align 4
  store ptr %5, ptr %17, align 8
  store i32 %6, ptr %18, align 4
  store i32 %7, ptr %19, align 4
  store i32 %8, ptr %20, align 4
  store ptr %9, ptr %21, align 8
  store i32 %10, ptr %22, align 4
  %28 = load ptr, ptr %21, align 8
  %29 = getelementptr inbounds nuw %struct.ConvolveParams, ptr %28, i32 0, i32 3
  %30 = load i32, ptr %29, align 4
  %31 = sub nsw i32 14, %30
  %32 = load ptr, ptr %21, align 8
  %33 = getelementptr inbounds nuw %struct.ConvolveParams, ptr %32, i32 0, i32 4
  %34 = load i32, ptr %33, align 8
  %35 = sub nsw i32 %31, %34
  %36 = load i32, ptr %22, align 4
  %37 = sub nsw i32 %36, 8
  %38 = add nsw i32 %35, %37
  store i32 %38, ptr %23, align 4
  store i32 0, ptr %24, align 4
  br label %39

39:                                               ; preds = %105, %11
  %40 = load i32, ptr %24, align 4
  %41 = load i32, ptr %19, align 4
  %42 = icmp slt i32 %40, %41
  br i1 %42, label %43, label %108

43:                                               ; preds = %39
  store i32 0, ptr %25, align 4
  br label %44

44:                                               ; preds = %101, %43
  %45 = load i32, ptr %25, align 4
  %46 = load i32, ptr %20, align 4
  %47 = icmp slt i32 %45, %46
  br i1 %47, label %48, label %104

48:                                               ; preds = %44
  %49 = load ptr, ptr %15, align 8
  %50 = load i32, ptr %24, align 4
  %51 = load i32, ptr %16, align 4
  %52 = mul nsw i32 %50, %51
  %53 = load i32, ptr %25, align 4
  %54 = add nsw i32 %52, %53
  %55 = sext i32 %54 to i64
  %56 = getelementptr inbounds i16, ptr %49, i64 %55
  %57 = load i16, ptr %56, align 2
  %58 = zext i16 %57 to i32
  %59 = load ptr, ptr %17, align 8
  %60 = load i32, ptr %24, align 4
  %61 = load i32, ptr %18, align 4
  %62 = mul nsw i32 %60, %61
  %63 = load i32, ptr %25, align 4
  %64 = add nsw i32 %62, %63
  %65 = sext i32 %64 to i64
  %66 = getelementptr inbounds i16, ptr %59, i64 %65
  %67 = load i16, ptr %66, align 2
  %68 = zext i16 %67 to i32
  %69 = sub nsw i32 %58, %68
  %70 = call i32 @llvm.abs.i32(i32 %69, i1 true)
  store i32 %70, ptr %27, align 4
  %71 = load i32, ptr %27, align 4
  %72 = load i32, ptr %23, align 4
  %73 = shl i32 1, %72
  %74 = ashr i32 %73, 1
  %75 = add nsw i32 %71, %74
  %76 = load i32, ptr %23, align 4
  %77 = ashr i32 %75, %76
  store i32 %77, ptr %27, align 4
  %78 = load i32, ptr %14, align 4
  %79 = load i32, ptr %27, align 4
  %80 = sdiv i32 %79, 16
  %81 = add nsw i32 %78, %80
  %82 = call i32 @clamp(i32 noundef %81, i32 noundef 0, i32 noundef 64)
  store i32 %82, ptr %26, align 4
  %83 = load i32, ptr %13, align 4
  %84 = icmp ne i32 %83, 0
  br i1 %84, label %85, label %88

85:                                               ; preds = %48
  %86 = load i32, ptr %26, align 4
  %87 = sub nsw i32 64, %86
  br label %90

88:                                               ; preds = %48
  %89 = load i32, ptr %26, align 4
  br label %90

90:                                               ; preds = %88, %85
  %91 = phi i32 [ %87, %85 ], [ %89, %88 ]
  %92 = trunc i32 %91 to i8
  %93 = load ptr, ptr %12, align 8
  %94 = load i32, ptr %24, align 4
  %95 = load i32, ptr %20, align 4
  %96 = mul nsw i32 %94, %95
  %97 = load i32, ptr %25, align 4
  %98 = add nsw i32 %96, %97
  %99 = sext i32 %98 to i64
  %100 = getelementptr inbounds i8, ptr %93, i64 %99
  store i8 %92, ptr %100, align 1
  br label %101

101:                                              ; preds = %90
  %102 = load i32, ptr %25, align 4
  %103 = add nsw i32 %102, 1
  store i32 %103, ptr %25, align 4
  br label %44, !llvm.loop !4

104:                                              ; preds = %44
  br label %105

105:                                              ; preds = %104
  %106 = load i32, ptr %24, align 4
  %107 = add nsw i32 %106, 1
  store i32 %107, ptr %24, align 4
  br label %39, !llvm.loop !6

108:                                              ; preds = %39
  ret void
}

; Function Attrs: nounwind uwtable
define hidden void @av1_build_compound_diffwtd_mask_d16_c(ptr noundef %0, i8 noundef zeroext %1, ptr noundef %2, i32 noundef %3, ptr noundef %4, i32 noundef %5, i32 noundef %6, i32 noundef %7, ptr noundef %8, i32 noundef %9) #0 {
  %11 = alloca ptr, align 8
  %12 = alloca i8, align 1
  %13 = alloca ptr, align 8
  %14 = alloca i32, align 4
  %15 = alloca ptr, align 8
  %16 = alloca i32, align 4
  %17 = alloca i32, align 4
  %18 = alloca i32, align 4
  %19 = alloca ptr, align 8
  %20 = alloca i32, align 4
  store ptr %0, ptr %11, align 8
  store i8 %1, ptr %12, align 1
  store ptr %2, ptr %13, align 8
  store i32 %3, ptr %14, align 4
  store ptr %4, ptr %15, align 8
  store i32 %5, ptr %16, align 4
  store i32 %6, ptr %17, align 4
  store i32 %7, ptr %18, align 4
  store ptr %8, ptr %19, align 8
  store i32 %9, ptr %20, align 4
  %21 = load i8, ptr %12, align 1
  %22 = zext i8 %21 to i32
  switch i32 %22, label %43 [
    i32 0, label %23
    i32 1, label %33
  ]

23:                                               ; preds = %10
  %24 = load ptr, ptr %11, align 8
  %25 = load ptr, ptr %13, align 8
  %26 = load i32, ptr %14, align 4
  %27 = load ptr, ptr %15, align 8
  %28 = load i32, ptr %16, align 4
  %29 = load i32, ptr %17, align 4
  %30 = load i32, ptr %18, align 4
  %31 = load ptr, ptr %19, align 8
  %32 = load i32, ptr %20, align 4
  call void @diffwtd_mask_d16(ptr noundef %24, i32 noundef 0, i32 noundef 38, ptr noundef %25, i32 noundef %26, ptr noundef %27, i32 noundef %28, i32 noundef %29, i32 noundef %30, ptr noundef %31, i32 noundef %32)
  br label %44

33:                                               ; preds = %10
  %34 = load ptr, ptr %11, align 8
  %35 = load ptr, ptr %13, align 8
  %36 = load i32, ptr %14, align 4
  %37 = load ptr, ptr %15, align 8
  %38 = load i32, ptr %16, align 4
  %39 = load i32, ptr %17, align 4
  %40 = load i32, ptr %18, align 4
  %41 = load ptr, ptr %19, align 8
  %42 = load i32, ptr %20, align 4
  call void @diffwtd_mask_d16(ptr noundef %34, i32 noundef 1, i32 noundef 38, ptr noundef %35, i32 noundef %36, ptr noundef %37, i32 noundef %38, i32 noundef %39, i32 noundef %40, ptr noundef %41, i32 noundef %42)
  br label %44

43:                                               ; preds = %10
  br label %44

44:                                               ; preds = %43, %33, %23
  ret void
}