; Function Attrs: nofree norecurse nosync nounwind memory(argmem: readwrite) uwtable
define hidden void @av1_build_compound_diffwtd_mask_d16_c(ptr nocapture noundef writeonly %0, i8 noundef zeroext %1, ptr nocapture noundef readonly %2, i32 noundef %3, ptr nocapture noundef readonly %4, i32 noundef %5, i32 noundef %6, i32 noundef %7, ptr nocapture noundef readonly %8, i32 noundef %9) local_unnamed_addr #7 {
  switch i8 %1, label %diffwtd_mask_d16.exit [
    i8 0, label %11
    i8 1, label %40
  ]

11:                                               ; preds = %10
  %12 = getelementptr i8, ptr %8, i64 20
  %.val = load i32, ptr %12, align 4
  %13 = getelementptr i8, ptr %8, i64 24
  %.val18 = load i32, ptr %13, align 8
  %.neg27 = add i32 %9, 6
  %14 = add i32 %.val, %.val18
  %15 = sub i32 %.neg27, %14
  %16 = icmp sgt i32 %6, 0
  br i1 %16, label %.preheader.lr.ph.i, label %diffwtd_mask_d16.exit

.preheader.lr.ph.i:                               ; preds = %11
  %17 = icmp sgt i32 %7, 0
  %18 = shl nuw i32 1, %15
  %19 = ashr i32 %18, 1
  br i1 %17, label %.preheader.lr.ph.split.us.i, label %diffwtd_mask_d16.exit

.preheader.lr.ph.split.us.i:                      ; preds = %.preheader.lr.ph.i
  %20 = sext i32 %3 to i64
  %21 = sext i32 %5 to i64
  %22 = zext nneg i32 %7 to i64
  %wide.trip.count23.i = zext nneg i32 %6 to i64
  br label %.preheader.us.us.i

.preheader.us.us.i:                               ; preds = %._crit_edge.split.us.us.us.i, %.preheader.lr.ph.split.us.i
  %indvars.iv20.i = phi i64 [ %indvars.iv.next21.i, %._crit_edge.split.us.us.us.i ], [ 0, %.preheader.lr.ph.split.us.i ]
  %23 = mul nsw i64 %indvars.iv20.i, %20
  %24 = mul nsw i64 %indvars.iv20.i, %21
  %25 = mul nuw nsw i64 %indvars.iv20.i, %22
  %invariant.gep30.i = getelementptr i16, ptr %2, i64 %23
  %invariant.gep32.i = getelementptr i16, ptr %4, i64 %24
  %invariant.gep34.i = getelementptr inbounds i8, ptr %0, i64 %25
  br label %26

26:                                               ; preds = %26, %.preheader.us.us.i
  %indvars.iv15.i = phi i64 [ %indvars.iv.next16.i, %26 ], [ 0, %.preheader.us.us.i ]
  %gep31.i = getelementptr i16, ptr %invariant.gep30.i, i64 %indvars.iv15.i
  %27 = load i16, ptr %gep31.i, align 2
  %28 = zext i16 %27 to i32
  %gep33.i = getelementptr i16, ptr %invariant.gep32.i, i64 %indvars.iv15.i
  %29 = load i16, ptr %gep33.i, align 2
  %30 = zext i16 %29 to i32
  %31 = sub nsw i32 %28, %30
  %32 = tail call i32 @llvm.abs.i32(i32 %31, i1 true)
  %33 = add nsw i32 %32, %19
  %34 = ashr i32 %33, %15
  %35 = sdiv i32 %34, 16
  %36 = tail call i32 @llvm.smin.i32(i32 %35, i32 26)
  %37 = tail call i32 @llvm.smax.i32(i32 %36, i32 -38)
  %38 = trunc nsw i32 %37 to i8
  %39 = add nsw i8 %38, 38
  %gep35.i = getelementptr inbounds i8, ptr %invariant.gep34.i, i64 %indvars.iv15.i
  store i8 %39, ptr %gep35.i, align 1
  %indvars.iv.next16.i = add nuw nsw i64 %indvars.iv15.i, 1
  %exitcond19.not.i = icmp eq i64 %indvars.iv.next16.i, %22
  br i1 %exitcond19.not.i, label %._crit_edge.split.us.us.us.i, label %26, !llvm.loop !4

._crit_edge.split.us.us.us.i:                     ; preds = %26
  %indvars.iv.next21.i = add nuw nsw i64 %indvars.iv20.i, 1
  %exitcond24.not.i = icmp eq i64 %indvars.iv.next21.i, %wide.trip.count23.i
  br i1 %exitcond24.not.i, label %diffwtd_mask_d16.exit, label %.preheader.us.us.i, !llvm.loop !6

40:                                               ; preds = %10
  %41 = getelementptr i8, ptr %8, i64 20
  %.val19 = load i32, ptr %41, align 4
  %42 = getelementptr i8, ptr %8, i64 24
  %.val20 = load i32, ptr %42, align 8
  %.neg = add i32 %9, 6
  %43 = add i32 %.val19, %.val20
  %44 = sub i32 %.neg, %43
  %45 = icmp sgt i32 %6, 0
  br i1 %45, label %.preheader.lr.ph.i22, label %diffwtd_mask_d16.exit

.preheader.lr.ph.i22:                             ; preds = %40
  %46 = icmp sgt i32 %7, 0
  %47 = shl nuw i32 1, %44
  %48 = ashr i32 %47, 1
  br i1 %46, label %.preheader.lr.ph.split.us.i23, label %diffwtd_mask_d16.exit

.preheader.lr.ph.split.us.i23:                    ; preds = %.preheader.lr.ph.i22
  %49 = sext i32 %3 to i64
  %50 = sext i32 %5 to i64
  %51 = zext nneg i32 %7 to i64
  %wide.trip.count23.i24 = zext nneg i32 %6 to i64
  br label %.preheader.us.i

.preheader.us.i:                                  ; preds = %._crit_edge.split.us5.i, %.preheader.lr.ph.split.us.i23
  %indvars.iv10.i = phi i64 [ %indvars.iv.next11.i, %._crit_edge.split.us5.i ], [ 0, %.preheader.lr.ph.split.us.i23 ]
  %52 = mul nsw i64 %indvars.iv10.i, %49
  %53 = mul nsw i64 %indvars.iv10.i, %50
  %54 = mul nuw nsw i64 %indvars.iv10.i, %51
  %invariant.gep.i = getelementptr i16, ptr %2, i64 %52
  %invariant.gep26.i = getelementptr i16, ptr %4, i64 %53
  %invariant.gep28.i = getelementptr inbounds i8, ptr %0, i64 %54
  br label %55

55:                                               ; preds = %55, %.preheader.us.i
  %indvars.iv.i = phi i64 [ 0, %.preheader.us.i ], [ %indvars.iv.next.i, %55 ]
  %gep.i = getelementptr i16, ptr %invariant.gep.i, i64 %indvars.iv.i
  %56 = load i16, ptr %gep.i, align 2
  %57 = zext i16 %56 to i32
  %gep27.i = getelementptr i16, ptr %invariant.gep26.i, i64 %indvars.iv.i
  %58 = load i16, ptr %gep27.i, align 2
  %59 = zext i16 %58 to i32
  %60 = sub nsw i32 %57, %59
  %61 = tail call i32 @llvm.abs.i32(i32 %60, i1 true)
  %62 = add nsw i32 %61, %48
  %63 = ashr i32 %62, %44
  %64 = sdiv i32 %63, 16
  %65 = tail call i32 @llvm.smin.i32(i32 %64, i32 26)
  %66 = tail call i32 @llvm.smax.i32(i32 %65, i32 -38)
  %67 = trunc nsw i32 %66 to i8
  %68 = sub nsw i8 26, %67
  %gep29.i = getelementptr inbounds i8, ptr %invariant.gep28.i, i64 %indvars.iv.i
  store i8 %68, ptr %gep29.i, align 1
  %indvars.iv.next.i = add nuw nsw i64 %indvars.iv.i, 1
  %exitcond.not.i = icmp eq i64 %indvars.iv.next.i, %51
  br i1 %exitcond.not.i, label %._crit_edge.split.us5.i, label %55, !llvm.loop !4

._crit_edge.split.us5.i:                          ; preds = %55
  %indvars.iv.next11.i = add nuw nsw i64 %indvars.iv10.i, 1
  %exitcond14.not.i = icmp eq i64 %indvars.iv.next11.i, %wide.trip.count23.i24
  br i1 %exitcond14.not.i, label %diffwtd_mask_d16.exit, label %.preheader.us.i, !llvm.loop !6

diffwtd_mask_d16.exit:                            ; preds = %._crit_edge.split.us5.i, %._crit_edge.split.us.us.us.i, %.preheader.lr.ph.i22, %40, %.preheader.lr.ph.i, %11, %10
  ret void
}